; Function Attrs: mustprogress uwtable
define void @_ZN3zmq14ws_connecter_tC2EPNS_11io_thread_tEPNS_14session_base_tERKNS_9options_tEPNS_9address_tEbbRKNSt7__cxx1112basic_stringIcSt11char_traitsIcESaIcEEE(ptr noundef nonnull align 8 dereferenceable(1560) %0, ptr noundef %1, ptr noundef %2, ptr noundef nonnull align 8 dereferenceable(1336) %3, ptr noundef %4, i1 noundef zeroext %5, i1 noundef zeroext %6, ptr noundef nonnull align 8 dereferenceable(32) %7) unnamed_addr #0 align 2 {
  %9 = zext i1 %6 to i8
  tail call void @_ZN3zmq23stream_connecter_base_tC2EPNS_11io_thread_tEPNS_14session_base_tERKNS_9options_tEPNS_9address_tEb(ptr noundef nonnull align 8 dereferenceable(1544) %0, ptr noundef %1, ptr noundef %2, ptr noundef nonnull align 8 dereferenceable(1336) %3, ptr noundef %4, i1 noundef zeroext %5)
  store ptr getelementptr inbounds nuw inrange(-16, 232) (i8, ptr @_ZTVN3zmq14ws_connecter_tE, i64 16), ptr %0, align 8, !tbaa !3
  %10 = getelementptr inbounds nuw i8, ptr %0, i64 1448
  store ptr getelementptr inbounds nuw inrange(-16, 40) (i8, ptr @_ZTVN3zmq14ws_connecter_tE, i64 264), ptr %10, align 8, !tbaa !3
  %11 = getelementptr inbounds nuw i8, ptr %0, i64 1544
  store i8 0, ptr %11, align 8, !tbaa !6
  %12 = getelementptr inbounds nuw i8, ptr %0, i64 1545
  store i8 %9, ptr %12, align 1, !tbaa !69
  %13 = getelementptr inbounds nuw i8, ptr %0, i64 1552
  store ptr %7, ptr %13, align 8, !tbaa !70
  ret void
}